; Function Attrs: mustprogress uwtable
define void @_ZNK8QuantLib26SwaptionVolatilityDiscrete19performCalculationsEv(ptr noundef nonnull align 8 dereferenceable(336) %this) unnamed_addr #8 align 2 {
entry:
  %add.ptr = getelementptr inbounds i8, ptr %this, i64 16
  %moving_ = getelementptr inbounds i8, ptr %this, i64 25
  %0 = load i8, ptr %moving_, align 1, !tbaa !89, !range !26, !noundef !27
  %loadedv = trunc nuw i8 %0 to i1
  br i1 %loadedv, label %if.then, label %if.end10

if.then:                                          ; preds = %entry
  %cachedReferenceDate_ = getelementptr inbounds nuw i8, ptr %this, i64 328
  %vtable = load ptr, ptr %add.ptr, align 8, !tbaa !22
  %vfn = getelementptr inbounds i8, ptr %vtable, i64 40
  %1 = load ptr, ptr %vfn, align 8
  %call = tail call noundef nonnull align 8 dereferenceable(8) ptr %1(ptr noundef nonnull align 8 dereferenceable(64) %add.ptr)
  %2 = load i64, ptr %cachedReferenceDate_, align 8, !tbaa !77
  %3 = load i64, ptr %call, align 8, !tbaa !77
  %cmp.i.not = icmp eq i64 %2, %3
  br i1 %cmp.i.not, label %if.end10, label %if.then4

if.then4:                                         ; preds = %if.then
  %vtable6 = load ptr, ptr %add.ptr, align 8, !tbaa !22
  %vfn7 = getelementptr inbounds i8, ptr %vtable6, i64 40
  %4 = load ptr, ptr %vfn7, align 8
  %call8 = tail call noundef nonnull align 8 dereferenceable(8) ptr %4(ptr noundef nonnull align 8 dereferenceable(64) %add.ptr)
  %5 = load i64, ptr %call8, align 8, !tbaa !66
  store i64 %5, ptr %cachedReferenceDate_, align 8, !tbaa !66
  tail call void @_ZNK8QuantLib26SwaptionVolatilityDiscrete29initializeOptionDatesAndTimesEv(ptr noundef nonnull align 8 dereferenceable(336) %this)
  %nSwapTenors_.i = getelementptr inbounds nuw i8, ptr %this, i64 272
  %6 = load i64, ptr %nSwapTenors_.i, align 8, !tbaa !63
  %cmp5.not.i = icmp eq i64 %6, 0
  br i1 %cmp5.not.i, label %_ZNK8QuantLib26SwaptionVolatilityDiscrete21initializeSwapLengthsEv.exit, label %for.body.lr.ph.i

for.body.lr.ph.i:                                 ; preds = %if.then4
  %swapTenors_.i = getelementptr inbounds nuw i8, ptr %this, i64 280
  %swapLengths_.i = getelementptr inbounds nuw i8, ptr %this, i64 304
  br label %for.body.i

for.body.i:                                       ; preds = %for.body.i, %for.body.lr.ph.i
  %i.06.i = phi i64 [ 0, %for.body.lr.ph.i ], [ %inc.i, %for.body.i ]
  %7 = load ptr, ptr %swapTenors_.i, align 8, !tbaa !35
  %add.ptr.i.i = getelementptr inbounds nuw %"class.QuantLib::Period", ptr %7, i64 %i.06.i
  %call2.i = tail call noundef double @_ZNK8QuantLib27SwaptionVolatilityStructure10swapLengthERKNS_6PeriodE(ptr noundef nonnull align 8 dereferenceable(68) %add.ptr, ptr noundef nonnull align 4 dereferenceable(8) %add.ptr.i.i)
  %8 = load ptr, ptr %swapLengths_.i, align 8, !tbaa !57
  %add.ptr.i4.i = getelementptr inbounds nuw double, ptr %8, i64 %i.06.i
  store double %call2.i, ptr %add.ptr.i4.i, align 8, !tbaa !59
  %inc.i = add nuw i64 %i.06.i, 1
  %9 = load i64, ptr %nSwapTenors_.i, align 8, !tbaa !63
  %cmp.i1 = icmp ult i64 %inc.i, %9
  br i1 %cmp.i1, label %for.body.i, label %_ZNK8QuantLib26SwaptionVolatilityDiscrete21initializeSwapLengthsEv.exit, !llvm.loop !64

_ZNK8QuantLib26SwaptionVolatilityDiscrete21initializeSwapLengthsEv.exit: ; preds = %for.body.i, %if.then4
  %impl_.i = getelementptr inbounds nuw i8, ptr %this, i64 184
  %10 = load ptr, ptr %impl_.i, align 8, !tbaa !65
  %cmp.not.i.i = icmp eq ptr %10, null
  br i1 %cmp.not.i.i, label %cond.false.i.i, label %_ZN8QuantLib13Interpolation6updateEv.exit, !prof !52

cond.false.i.i:                                   ; preds = %_ZNK8QuantLib26SwaptionVolatilityDiscrete21initializeSwapLengthsEv.exit
  tail call void @_ZN5boost16assertion_failedEPKcS1_S1_l(ptr noundef nonnull @.str.14, ptr noundef nonnull @__PRETTY_FUNCTION__._ZNK5boost10shared_ptrIN8QuantLib13Interpolation4ImplEEptEv, ptr noundef nonnull @.str.15, i64 noundef 784)
  %.pre.i.i = load ptr, ptr %impl_.i, align 8, !tbaa !65
  br label %_ZN8QuantLib13Interpolation6updateEv.exit

_ZN8QuantLib13Interpolation6updateEv.exit:        ; preds = %_ZNK8QuantLib26SwaptionVolatilityDiscrete21initializeSwapLengthsEv.exit, %cond.false.i.i
  %11 = phi ptr [ %10, %_ZNK8QuantLib26SwaptionVolatilityDiscrete21initializeSwapLengthsEv.exit ], [ %.pre.i.i, %cond.false.i.i ]
  %vtable.i = load ptr, ptr %11, align 8, !tbaa !22
  %vfn.i = getelementptr inbounds i8, ptr %vtable.i, i64 16
  %12 = load ptr, ptr %vfn.i, align 8
  tail call void %12(ptr noundef nonnull align 8 dereferenceable(8) %11)
  br label %if.end10

if.end10:                                         ; preds = %if.then, %_ZN8QuantLib13Interpolation6updateEv.exit, %entry
  ret void
}